Certificate Request:
    Data:
        Version: 1 (0x0)
        Subject: CN = dbhost.yourdomain.com
        Subject Public Key Info:
            Public Key Algorithm: rsaEncryption
                Public-Key: (2048 bit)
                Modulus:
                    00:9c:da:6e:a6:3d:77:67:6d:b8:88:d5:2e:d9:2d:
                    21:ca:9b:e4:3d:f9:a7:ba:c6:60:12:85:0c:66:64:
                    2b:ac:10:a4:2a:69:a7:78:0e:0f:d8:c7:b8:83:ed:
                    5d:2e:9b:30:0f:27:1e:ca:b1:0c:34:4f:e3:25:57:
                    7a:5c:38:ee:ba:5a:1c:f7:d3:c7:92:df:ef:9f:26:
                    2c:01:50:bf:63:df:7d:e6:0e:d7:08:49:33:de:aa:
                    2d:42:3b:8f:81:c2:87:14:6c:5a:cf:c3:b6:06:59:
                    3a:f6:f0:ec:ff:2b:ec:7c:e1:9b:c3:d6:5d:50:34:
                    55:37:c6:77:be:88:15:0a:a9:43:0d:8c:b4:b9:9f:
                    8f:8a:03:70:b7:a6:82:cb:cd:ba:ae:cd:11:b7:f2:
                    e1:56:16:8c:67:f9:73:c1:0d:b3:50:1f:76:3a:f9:
                    91:50:bb:4c:ed:67:56:d6:c0:3f:1f:24:a3:98:20:
                    55:14:6b:1c:89:f7:fe:97:04:ca:fb:50:54:1f:47:
                    5a:31:4b:2d:48:86:ab:cc:c3:ca:38:b0:1f:72:8a:
                    60:40:bc:e8:31:39:f4:a3:20:c4:4c:93:7c:ef:10:
                    16:37:4d:9e:10:60:28:f2:89:55:bf:3d:04:cf:8d:
                    58:45:3f:d5:4a:06:be:fc:5a:74:db:8d:8f:ca:98:
                    3b:c1
                Exponent: 65537 (0x10001)
        Attributes:
            (none)
            Requested Extensions:
    Signature Algorithm: sha256WithRSAEncryption
    Signature Value:
        7d:54:f9:9a:3c:79:64:e3:5b:9a:93:3a:36:d8:72:4d:fb:cd:
        d2:a6:19:e6:d9:e0:d0:de:39:b1:a9:eb:f4:a0:eb:88:b7:0a:
        5b:c8:09:25:4a:6b:26:05:8f:3f:aa:da:75:a8:02:b5:09:ec:
        e8:b9:ec:2e:55:b8:61:12:ae:5b:e9:41:68:08:cd:22:e6:e2:
        d9:e9:cc:6e:df:c3:5e:2f:20:7a:39:b1:24:3a:f5:9a:9d:d1:
        39:2a:f4:c1:16:e9:64:84:1f:cd:4a:ac:91:82:e8:69:00:0b:
        2f:49:2d:15:4c:85:0f:a3:68:d1:98:aa:90:23:db:84:7a:98:
        f5:fb:03:c1:d1:ae:ef:e3:67:54:f0:91:ce:29:ac:ae:dd:3f:
        ac:74:59:0e:69:69:97:08:24:1b:27:77:23:b8:97:28:53:69:
        ab:50:cf:ae:00:06:1e:6b:8f:62:ce:bb:9d:49:0f:c2:65:0a:
        a6:5c:05:ac:b4:de:7c:72:55:9e:aa:01:0c:ff:14:46:c0:d6:
        44:eb:43:b8:25:d8:a5:e7:8b:49:c3:dd:d0:66:58:be:92:06:
        9a:dd:44:6f:c9:01:b9:5d:1e:09:fa:ad:e7:ab:8a:67:d5:21:
        00:d7:a8:c7:f1:1b:a2:f5:6a:64:c7:64:23:f2:df:f8:e0:9e:
        ba:46:40:0a
-----BEGIN CERTIFICATE REQUEST-----
MIICZTCCAU0CAQAwIDEeMBwGA1UEAwwVZGJob3N0LnlvdXJkb21haW4uY29tMIIB
IjANBgkqhkiG9w0BAQEFAAOCAQ8AMIIBCgKCAQEAnNpupj13Z224iNUu2S0hypvk
PfmnusZgEoUMZmQrrBCkKmmneA4P2Me4g+1dLpswDyceyrEMNE/jJVd6XDjuuloc
99PHkt/vnyYsAVC/Y9995g7XCEkz3qotQjuPgcKHFGxaz8O2Blk69vDs/yvsfOGb
w9ZdUDRVN8Z3vogVCqlDDYy0uZ+PigNwt6aCy826rs0Rt/LhVhaMZ/lzwQ2zUB92
OvmRULtM7WdW1sA/HySjmCBVFGsciff+lwTK+1BUH0daMUstSIarzMPKOLAfcopg
QLzoMTn0oyDETJN87xAWN02eEGAo8olVvz0Ez41YRT/VSga+/Fp0242Pypg7wQID
AQABoAAwDQYJKoZIhvcNAQELBQADggEBAH1U+Zo8eWTjW5qTOjbYck37zdKmGebZ
4NDeObGp6/Sg64i3ClvICSVKayYFjz+q2nWoArUJ7Oi57C5VuGESrlvpQWgIzSLm
4tnpzG7fw14vIHo5sSQ69Zqd0Tkq9MEW6WSEH81KrJGC6GkACy9JLRVMhQ+jaNGY
qpAj24R6mPX7A8HRru/jZ1Twkc4prK7dP6x0WQ5paZcIJBsndyO4lyhTaatQz64A
Bh5rj2LOu51JD8JlCqZcBay03nxyVZ6qAQz/FEbA1kTrQ7gl2KXni0nD3dBmWL6S
BprdRG/JAbldHgn6reerimfVIQDXqMfxG6L1amTHZCPy3/jgnrpGQAo=
-----END CERTIFICATE REQUEST-----
